; Function Attrs: mustprogress nounwind uwtable
define dso_local void @_ZN6v8impl7RefBase8FinalizeEv(ptr noundef nonnull align 8 dereferenceable(72) %this) unnamed_addr #3 align 2 {
entry:
  %ownership_ = getelementptr inbounds i8, ptr %this, i64 68
  %0 = load i32, ptr %ownership_, align 4
  %cmp = icmp eq i32 %0, 0
  %finalize_callback_.i = getelementptr inbounds i8, ptr %this, i64 16
  %1 = load ptr, ptr %finalize_callback_.i, align 8
  %finalize_data_.i = getelementptr inbounds i8, ptr %this, i64 24
  %2 = load ptr, ptr %finalize_data_.i, align 8
  %finalize_hint_.i = getelementptr inbounds i8, ptr %this, i64 32
  %3 = load ptr, ptr %finalize_hint_.i, align 8
  tail call void @llvm.memset.p0.i64(ptr noundef nonnull align 8 dereferenceable(24) %finalize_callback_.i, i8 0, i64 24, i1 false)
  %prev_.i.i = getelementptr inbounds i8, ptr %this, i64 56
  %4 = load ptr, ptr %prev_.i.i, align 8
  %cmp.not.i.i = icmp eq ptr %4, null
  %next_4.phi.trans.insert.i.i = getelementptr inbounds i8, ptr %this, i64 48
  %.pre.i.i = load ptr, ptr %next_4.phi.trans.insert.i.i, align 8
  br i1 %cmp.not.i.i, label %if.end.i.i, label %if.then.i.i

if.then.i.i:                                      ; preds = %entry
  %next_3.i.i = getelementptr inbounds i8, ptr %4, i64 8
  store ptr %.pre.i.i, ptr %next_3.i.i, align 8
  br label %if.end.i.i

if.end.i.i:                                       ; preds = %if.then.i.i, %entry
  %cmp5.not.i.i = icmp eq ptr %.pre.i.i, null
  br i1 %cmp5.not.i.i, label %_ZN6v8impl10RefTracker6UnlinkEv.exit.i, label %if.then6.i.i

if.then6.i.i:                                     ; preds = %if.end.i.i
  %5 = load ptr, ptr %prev_.i.i, align 8
  %prev_9.i.i = getelementptr inbounds i8, ptr %.pre.i.i, i64 16
  store ptr %5, ptr %prev_9.i.i, align 8
  br label %_ZN6v8impl10RefTracker6UnlinkEv.exit.i

_ZN6v8impl10RefTracker6UnlinkEv.exit.i:           ; preds = %if.then6.i.i, %if.end.i.i
  tail call void @llvm.memset.p0.i64(ptr noundef nonnull align 8 dereferenceable(16) %next_4.phi.trans.insert.i.i, i8 0, i64 16, i1 false)
  %cmp.not.i = icmp eq ptr %1, null
  br i1 %cmp.not.i, label %if.end.i, label %if.then.i

if.then.i:                                        ; preds = %_ZN6v8impl10RefTracker6UnlinkEv.exit.i
  %env_.i = getelementptr inbounds i8, ptr %this, i64 8
  %6 = load ptr, ptr %env_.i, align 8
  %vtable.i = load ptr, ptr %6, align 8
  %vfn.i = getelementptr inbounds i8, ptr %vtable.i, i64 8
  %7 = load ptr, ptr %vfn.i, align 8
  tail call void %7(ptr noundef nonnull align 8 dereferenceable(189) %6, ptr noundef nonnull %1, ptr noundef %2, ptr noundef %3) #24
  br label %if.end.i

if.end.i:                                         ; preds = %if.then.i, %_ZN6v8impl10RefTracker6UnlinkEv.exit.i
  br i1 %cmp, label %delete.notnull.i, label %_ZN6v8impl16TrackedFinalizer12FinalizeCoreEb.exit

delete.notnull.i:                                 ; preds = %if.end.i
  %vtable3.i = load ptr, ptr %this, align 8
  %vfn4.i = getelementptr inbounds i8, ptr %vtable3.i, i64 8
  %8 = load ptr, ptr %vfn4.i, align 8
  tail call void %8(ptr noundef nonnull align 8 dereferenceable(64) %this) #24
  br label %_ZN6v8impl16TrackedFinalizer12FinalizeCoreEb.exit

_ZN6v8impl16TrackedFinalizer12FinalizeCoreEb.exit: ; preds = %if.end.i, %delete.notnull.i
  ret void
}